target datalayout = "e-m:e-p270:32:32-p271:32:32-p272:64:64-i64:64-i128:128-f80:128-n8:16:32:64-S128"
target triple = "x86_64-pc-linux-gnu"

%struct.WOLFSSL_BUFFER_INFO = type { ptr, i32 }
%struct.SetVerifyOptions = type { i8 }
%struct.WOLFSSL = type <{ ptr, ptr, ptr, ptr, [48 x i8], [48 x i8], ptr, ptr, ptr, ptr, ptr, ptr, ptr, ptr, ptr, ptr, ptr, ptr, ptr, i32, [4 x i8], %struct.WOLFSSL_CIPHER, ptr, %struct.Ciphers, %struct.Ciphers, [8 x i8], %struct.Buffers, ptr, ptr, %struct.WOLFSSL_ALERT_HISTORY, %struct.WOLFSSL_ALERT, i32, i32, i32, i32, i32, i32, i32, i16, [2 x i8], i32, i8, %struct.RecordLayerHeader, %struct.MsgsReceived, %struct.ProtocolVersion, %struct.ProtocolVersion, %struct.CipherSpecs, [2 x i8], %struct.Keys, %struct.Options, ptr, i8, i8, i16, [10 x i16], i8, i8, i16, i16, [38 x i8], i32, i32, [4 x i8], ptr, i8, i8, [6 x i8], ptr, ptr, i16, i8, i8, i32, i8, [3 x i8], i32, %struct.OneTimeAuth, ptr }>
%struct.WOLFSSL_CIPHER = type { i8, i8, ptr }
%struct.Ciphers = type { ptr, ptr, ptr, ptr, i8, i8 }
%struct.Buffers = type { %struct.bufferStatic, %struct.bufferStatic, %struct.WOLFSSL_BUFFER_INFO, %struct.WOLFSSL_BUFFER_INFO, %struct.WOLFSSL_BUFFER_INFO, %struct.WOLFSSL_BUFFER_INFO, i32, i32, i8, i8, i8, i8, %struct.WOLFSSL_BUFFER_INFO, %struct.WOLFSSL_BUFFER_INFO, %struct.WOLFSSL_BUFFER_INFO, %struct.WOLFSSL_BUFFER_INFO, ptr, ptr, ptr, i8, i8, i32, i32, ptr, i32, [1 x ptr] }
%struct.bufferStatic = type { [5 x i8], ptr, i32, i32, i32, i8, i8 }
%struct.WOLFSSL_ALERT_HISTORY = type { %struct.WOLFSSL_ALERT, %struct.WOLFSSL_ALERT }
%struct.WOLFSSL_ALERT = type { i32, i32 }
%struct.RecordLayerHeader = type { i8, i8, i8, [2 x i8] }
%struct.MsgsReceived = type { i32 }
%struct.ProtocolVersion = type { i8, i8 }
%struct.CipherSpecs = type { i16, i16, i16, i16, i8, i8, i8, i8, i8, i8, i8, i8 }
%struct.Keys = type { [64 x i8], [64 x i8], [32 x i8], [32 x i8], [16 x i8], [16 x i8], [8 x i8], [12 x i8], [12 x i8], i32, i32, i32, i32, i32, i32, i8, i8, i8, i8 }
%struct.Options = type { i64, i64, i8, i8, i8, i8, i8, i8, i8, i8, i8, i8, i8, i8, i8, i8, i8, i8, i8, i8, i8, i8, i8, i16, i16, i16, i16, i16, i8 }
%struct.OneTimeAuth = type { ptr, i8 }

; Function Attrs: nounwind uwtable
define internal i8 @ModeToVerifyOptions(i32 noundef %0) #0 {
  %2 = alloca %struct.SetVerifyOptions, align 1
  %3 = alloca i32, align 4
  store i32 %0, ptr %3, align 4, !tbaa !7
  call void @llvm.memset.p0.i64(ptr align 1 %2, i8 0, i64 1, i1 false)
  %4 = load i32, ptr %3, align 4, !tbaa !7
  %5 = icmp ne i32 %4, 512
  br i1 %5, label %6, label %51

6:                                                ; preds = %1
  %7 = load i32, ptr %3, align 4, !tbaa !7
  %8 = icmp eq i32 %7, 0
  %9 = zext i1 %8 to i32
  %10 = trunc i32 %9 to i8
  %11 = load i8, ptr %2, align 1
  %12 = and i8 %10, 1
  %13 = shl i8 %12, 1
  %14 = and i8 %11, -3
  %15 = or i8 %14, %13
  store i8 %15, ptr %2, align 1
  %16 = load i8, ptr %2, align 1
  %17 = lshr i8 %16, 1
  %18 = and i8 %17, 1
  %19 = icmp ne i8 %18, 0
  br i1 %19, label %50, label %20

20:                                               ; preds = %6
  %21 = load i32, ptr %3, align 4, !tbaa !7
  %22 = and i32 %21, 1
  %23 = icmp ne i32 %22, 0
  %24 = zext i1 %23 to i32
  %25 = trunc i32 %24 to i8
  %26 = load i8, ptr %2, align 1
  %27 = and i8 %25, 1
  %28 = and i8 %26, -2
  %29 = or i8 %28, %27
  store i8 %29, ptr %2, align 1
  %30 = load i32, ptr %3, align 4, !tbaa !7
  %31 = and i32 %30, 16
  %32 = icmp ne i32 %31, 0
  %33 = zext i1 %32 to i32
  %34 = trunc i32 %33 to i8
  %35 = load i8, ptr %2, align 1
  %36 = and i8 %34, 1
  %37 = shl i8 %36, 3
  %38 = and i8 %35, -9
  %39 = or i8 %38, %37
  store i8 %39, ptr %2, align 1
  %40 = load i32, ptr %3, align 4, !tbaa !7
  %41 = and i32 %40, 2
  %42 = icmp ne i32 %41, 0
  %43 = zext i1 %42 to i32
  %44 = trunc i32 %43 to i8
  %45 = load i8, ptr %2, align 1
  %46 = and i8 %44, 1
  %47 = shl i8 %46, 2
  %48 = and i8 %45, -5
  %49 = or i8 %48, %47
  store i8 %49, ptr %2, align 1
  br label %50

50:                                               ; preds = %20, %6
  br label %51

51:                                               ; preds = %50, %1
  %52 = getelementptr inbounds nuw %struct.SetVerifyOptions, ptr %2, i32 0, i32 0
  %53 = load i8, ptr %52, align 1
  ret i8 %53
}

; Function Attrs: nounwind uwtable
define void @wolfSSL_set_verify(ptr noundef %0, i32 noundef %1, ptr noundef %2) #0 {
  %4 = alloca ptr, align 8
  %5 = alloca i32, align 4
  %6 = alloca ptr, align 8
  %7 = alloca %struct.SetVerifyOptions, align 1
  %8 = alloca i32, align 4
  %9 = alloca %struct.SetVerifyOptions, align 1
  store ptr %0, ptr %4, align 8, !tbaa !61
  store i32 %1, ptr %5, align 4, !tbaa !7
  store ptr %2, ptr %6, align 8, !tbaa !3
  call void @llvm.lifetime.start.p0(i64 1, ptr %7) #9
  br label %10

10:                                               ; preds = %3
  br label %11

11:                                               ; preds = %10
  br label %12

12:                                               ; preds = %11
  %13 = load ptr, ptr %4, align 8, !tbaa !61
  %14 = icmp eq ptr %13, null
  br i1 %14, label %15, label %16

15:                                               ; preds = %12
  store i32 1, ptr %8, align 4
  br label %74

16:                                               ; preds = %12
  call void @llvm.lifetime.start.p0(i64 1, ptr %9) #9
  %17 = load i32, ptr %5, align 4, !tbaa !7
  %18 = call i8 @ModeToVerifyOptions(i32 noundef %17)
  %19 = getelementptr inbounds nuw %struct.SetVerifyOptions, ptr %9, i32 0, i32 0
  store i8 %18, ptr %19, align 1
  call void @llvm.memcpy.p0.p0.i64(ptr align 1 %7, ptr align 1 %9, i64 1, i1 false), !tbaa.struct !34
  call void @llvm.lifetime.end.p0(i64 1, ptr %9) #9
  %20 = load i8, ptr %7, align 1
  %21 = lshr i8 %20, 1
  %22 = and i8 %21, 1
  %23 = zext i8 %22 to i16
  %24 = load ptr, ptr %4, align 8, !tbaa !61
  %25 = getelementptr inbounds nuw %struct.WOLFSSL, ptr %24, i32 0, i32 49
  %26 = getelementptr inbounds nuw %struct.Options, ptr %25, i32 0, i32 1
  %27 = zext i16 %23 to i64
  %28 = load i64, ptr %26, align 8
  %29 = and i64 %27, 1
  %30 = shl i64 %29, 7
  %31 = and i64 %28, -129
  %32 = or i64 %31, %30
  store i64 %32, ptr %26, align 8
  %33 = load i8, ptr %7, align 1
  %34 = and i8 %33, 1
  %35 = zext i8 %34 to i16
  %36 = load ptr, ptr %4, align 8, !tbaa !61
  %37 = getelementptr inbounds nuw %struct.WOLFSSL, ptr %36, i32 0, i32 49
  %38 = getelementptr inbounds nuw %struct.Options, ptr %37, i32 0, i32 1
  %39 = zext i16 %35 to i64
  %40 = load i64, ptr %38, align 8
  %41 = and i64 %39, 1
  %42 = shl i64 %41, 6
  %43 = and i64 %40, -65
  %44 = or i64 %43, %42
  store i64 %44, ptr %38, align 8
  %45 = load i8, ptr %7, align 1
  %46 = lshr i8 %45, 2
  %47 = and i8 %46, 1
  %48 = zext i8 %47 to i16
  %49 = load ptr, ptr %4, align 8, !tbaa !61
  %50 = getelementptr inbounds nuw %struct.WOLFSSL, ptr %49, i32 0, i32 49
  %51 = getelementptr inbounds nuw %struct.Options, ptr %50, i32 0, i32 1
  %52 = zext i16 %48 to i64
  %53 = load i64, ptr %51, align 8
  %54 = and i64 %52, 1
  %55 = shl i64 %54, 8
  %56 = and i64 %53, -257
  %57 = or i64 %56, %55
  store i64 %57, ptr %51, align 8
  %58 = load i8, ptr %7, align 1
  %59 = lshr i8 %58, 3
  %60 = and i8 %59, 1
  %61 = zext i8 %60 to i16
  %62 = load ptr, ptr %4, align 8, !tbaa !61
  %63 = getelementptr inbounds nuw %struct.WOLFSSL, ptr %62, i32 0, i32 49
  %64 = getelementptr inbounds nuw %struct.Options, ptr %63, i32 0, i32 1
  %65 = zext i16 %61 to i64
  %66 = load i64, ptr %64, align 8
  %67 = and i64 %65, 1
  %68 = shl i64 %67, 9
  %69 = and i64 %66, -513
  %70 = or i64 %69, %68
  store i64 %70, ptr %64, align 8
  %71 = load ptr, ptr %6, align 8, !tbaa !3
  %72 = load ptr, ptr %4, align 8, !tbaa !61
  %73 = getelementptr inbounds nuw %struct.WOLFSSL, ptr %72, i32 0, i32 11
  store ptr %71, ptr %73, align 8, !tbaa !254
  store i32 0, ptr %8, align 4
  br label %74

74:                                               ; preds = %16, %15
  call void @llvm.lifetime.end.p0(i64 1, ptr %7) #9
  %75 = load i32, ptr %8, align 4
  switch i32 %75, label %77 [
    i32 0, label %76
    i32 1, label %76
  ]

76:                                               ; preds = %74, %74
  ret void

77:                                               ; preds = %74
  unreachable
}