; Function Attrs: mustprogress nofree norecurse nosync nounwind willreturn memory(argmem: readwrite) uwtable
define void @wolfSSL_set_verify(ptr noundef captures(address_is_null) %0, i32 noundef %1, ptr noundef %2) local_unnamed_addr #4 {
  %4 = icmp eq ptr %0, null
  br i1 %4, label %34, label %5

5:                                                ; preds = %3
  switch i32 %1, label %6 [
    i32 512, label %ModeToVerifyOptions.exit
    i32 0, label %.fold.split.i
  ]

6:                                                ; preds = %5
  %7 = trunc i32 %1 to i8
  %8 = and i8 %7, 1
  %9 = lshr i8 %7, 1
  %10 = and i8 %9, 8
  %11 = or disjoint i8 %10, %8
  %12 = shl i8 %7, 1
  %13 = and i8 %12, 4
  %14 = or disjoint i8 %11, %13
  br label %ModeToVerifyOptions.exit

.fold.split.i:                                    ; preds = %5
  br label %ModeToVerifyOptions.exit

ModeToVerifyOptions.exit:                         ; preds = %5, %6, %.fold.split.i
  %.sroa.0.0.i = phi i8 [ %14, %6 ], [ 0, %5 ], [ 2, %.fold.split.i ]
  %15 = getelementptr inbounds nuw i8, ptr %0, i64 1024
  %16 = load i64, ptr %15, align 8
  %17 = shl i8 %.sroa.0.0.i, 6
  %18 = and i64 %16, -961
  %19 = and i8 %17, 64
  %20 = zext nneg i8 %19 to i64
  %21 = and i8 %17, -128
  %.masked = zext i8 %21 to i64
  %22 = or disjoint i64 %18, %.masked
  %23 = or disjoint i64 %22, %20
  %24 = lshr i8 %.sroa.0.0.i, 2
  %25 = and i8 %24, 1
  %26 = zext nneg i8 %25 to i64
  %27 = shl nuw nsw i64 %26, 8
  %28 = lshr i8 %.sroa.0.0.i, 3
  %29 = zext nneg i8 %28 to i64
  %30 = shl nuw nsw i64 %29, 9
  %31 = add nuw nsw i64 %23, %30
  %32 = or disjoint i64 %31, %27
  store i64 %32, ptr %15, align 8
  %33 = getelementptr inbounds nuw i8, ptr %0, i64 168
  store ptr %2, ptr %33, align 8, !tbaa !233
  br label %34

34:                                               ; preds = %3, %ModeToVerifyOptions.exit
  ret void
}